; Function Attrs: mustprogress uwtable
define void @_ZN4LIEF5MachO4Hash5visitERKNS0_16CodeSignatureDirE(ptr noundef nonnull align 8 dereferenceable(64) %0, ptr nocapture noundef nonnull readonly align 8 dereferenceable(80) %1) unnamed_addr #3 align 2 {
  %3 = getelementptr inbounds i8, ptr %1, i64 56
  %4 = load i32, ptr %3, align 8
  %5 = zext i32 %4 to i64
  %6 = load ptr, ptr %0, align 8
  %7 = getelementptr inbounds i8, ptr %6, i64 1328
  %8 = load ptr, ptr %7, align 8
  %9 = tail call noundef nonnull align 8 dereferenceable(64) ptr %8(ptr noundef nonnull align 8 dereferenceable(64) %0, i64 noundef %5)
  %10 = getelementptr inbounds i8, ptr %1, i64 60
  %11 = load i32, ptr %10, align 4
  %12 = zext i32 %11 to i64
  %13 = load ptr, ptr %0, align 8
  %14 = getelementptr inbounds i8, ptr %13, i64 1328
  %15 = load ptr, ptr %14, align 8
  %16 = tail call noundef nonnull align 8 dereferenceable(64) ptr %15(ptr noundef nonnull align 8 dereferenceable(64) %0, i64 noundef %12)
  %17 = getelementptr inbounds i8, ptr %1, i64 64
  %18 = load ptr, ptr %17, align 8
  %19 = getelementptr inbounds i8, ptr %1, i64 72
  %20 = load i64, ptr %19, align 8
  %21 = load ptr, ptr %0, align 8
  %22 = getelementptr inbounds i8, ptr %21, i64 1360
  %23 = load ptr, ptr %22, align 8
  %24 = tail call noundef nonnull align 8 dereferenceable(64) ptr %23(ptr noundef nonnull align 8 dereferenceable(64) %0, ptr %18, i64 %20)
  ret void
}